target datalayout = "e-m:e-p270:32:32-p271:32:32-p272:64:64-i64:64-i128:128-f80:128-n8:16:32:64-S128"
target triple = "x86_64-pc-linux-gnu"

%"class.ncnn::Mat" = type { ptr, ptr, i64, i32, ptr, i32, i32, i32, i32, i32, i64 }

; Function Attrs: mustprogress uwtable
define internal void @_ZN4ncnnL31padding_constant_pack8_int8_sseERKNS_3MatERS0_iiiil(ptr noundef nonnull align 8 dereferenceable(72) %0, ptr noundef nonnull align 8 dereferenceable(72) %1, i32 noundef %2, i32 noundef %3, i32 noundef %4, i32 noundef %5, i64 noundef %6) #0 {
  %8 = alloca ptr, align 8
  %9 = alloca ptr, align 8
  %10 = alloca ptr, align 8
  %11 = alloca ptr, align 8
  %12 = alloca i32, align 4
  %13 = alloca i32, align 4
  %14 = alloca i32, align 4
  %15 = alloca i32, align 4
  %16 = alloca i64, align 8
  %17 = alloca ptr, align 8
  %18 = alloca ptr, align 8
  %19 = alloca i32, align 4
  %20 = alloca i32, align 4
  %21 = alloca i32, align 4
  %22 = alloca i32, align 4
  %23 = alloca i32, align 4
  %24 = alloca i32, align 4
  %25 = alloca i32, align 4
  %26 = alloca i32, align 4
  store ptr %0, ptr %10, align 8
  store ptr %1, ptr %11, align 8
  store i32 %2, ptr %12, align 4
  store i32 %3, ptr %13, align 4
  store i32 %4, ptr %14, align 4
  store i32 %5, ptr %15, align 4
  store i64 %6, ptr %16, align 8
  %27 = load ptr, ptr %10, align 8
  store ptr %27, ptr %9, align 8
  %28 = load ptr, ptr %9, align 8
  %29 = load ptr, ptr %28, align 8
  store ptr %29, ptr %17, align 8
  %30 = load ptr, ptr %11, align 8
  store ptr %30, ptr %8, align 8
  %31 = load ptr, ptr %8, align 8
  %32 = load ptr, ptr %31, align 8
  store ptr %32, ptr %18, align 8
  store i32 0, ptr %19, align 4
  br label %33

33:                                               ; preds = %52, %7
  %34 = load i32, ptr %19, align 4
  %35 = load i32, ptr %12, align 4
  %36 = icmp slt i32 %34, %35
  br i1 %36, label %37, label %55

37:                                               ; preds = %33
  store i32 0, ptr %20, align 4
  br label %38

38:                                               ; preds = %48, %37
  %39 = load i32, ptr %20, align 4
  %40 = load ptr, ptr %11, align 8
  %41 = getelementptr inbounds nuw %"class.ncnn::Mat", ptr %40, i32 0, i32 6
  %42 = load i32, ptr %41, align 4
  %43 = icmp slt i32 %39, %42
  br i1 %43, label %44, label %51

44:                                               ; preds = %38
  %45 = load i64, ptr %16, align 8
  %46 = load ptr, ptr %18, align 8
  %47 = getelementptr inbounds i64, ptr %46, i32 1
  store ptr %47, ptr %18, align 8
  store i64 %45, ptr %46, align 8
  br label %48

48:                                               ; preds = %44
  %49 = load i32, ptr %20, align 4
  %50 = add nsw i32 %49, 1
  store i32 %50, ptr %20, align 4
  br label %38, !llvm.loop !79

51:                                               ; preds = %38
  br label %52

52:                                               ; preds = %51
  %53 = load i32, ptr %19, align 4
  %54 = add nsw i32 %53, 1
  store i32 %54, ptr %19, align 4
  br label %33, !llvm.loop !80

55:                                               ; preds = %33
  store i32 0, ptr %21, align 4
  br label %56

56:                                               ; preds = %103, %55
  %57 = load i32, ptr %21, align 4
  %58 = load ptr, ptr %10, align 8
  %59 = getelementptr inbounds nuw %"class.ncnn::Mat", ptr %58, i32 0, i32 7
  %60 = load i32, ptr %59, align 8
  %61 = icmp slt i32 %57, %60
  br i1 %61, label %62, label %106

62:                                               ; preds = %56
  store i32 0, ptr %22, align 4
  br label %63

63:                                               ; preds = %71, %62
  %64 = load i32, ptr %22, align 4
  %65 = load i32, ptr %14, align 4
  %66 = icmp slt i32 %64, %65
  br i1 %66, label %67, label %74

67:                                               ; preds = %63
  %68 = load i64, ptr %16, align 8
  %69 = load ptr, ptr %18, align 8
  %70 = getelementptr inbounds i64, ptr %69, i32 1
  store ptr %70, ptr %18, align 8
  store i64 %68, ptr %69, align 8
  br label %71

71:                                               ; preds = %67
  %72 = load i32, ptr %22, align 4
  %73 = add nsw i32 %72, 1
  store i32 %73, ptr %22, align 4
  br label %63, !llvm.loop !81

74:                                               ; preds = %63
  store i32 0, ptr %23, align 4
  br label %75

75:                                               ; preds = %87, %74
  %76 = load i32, ptr %23, align 4
  %77 = load ptr, ptr %10, align 8
  %78 = getelementptr inbounds nuw %"class.ncnn::Mat", ptr %77, i32 0, i32 6
  %79 = load i32, ptr %78, align 4
  %80 = icmp slt i32 %76, %79
  br i1 %80, label %81, label %90

81:                                               ; preds = %75
  %82 = load ptr, ptr %17, align 8
  %83 = getelementptr inbounds i64, ptr %82, i32 1
  store ptr %83, ptr %17, align 8
  %84 = load i64, ptr %82, align 8
  %85 = load ptr, ptr %18, align 8
  %86 = getelementptr inbounds i64, ptr %85, i32 1
  store ptr %86, ptr %18, align 8
  store i64 %84, ptr %85, align 8
  br label %87

87:                                               ; preds = %81
  %88 = load i32, ptr %23, align 4
  %89 = add nsw i32 %88, 1
  store i32 %89, ptr %23, align 4
  br label %75, !llvm.loop !82

90:                                               ; preds = %75
  store i32 0, ptr %24, align 4
  br label %91

91:                                               ; preds = %99, %90
  %92 = load i32, ptr %24, align 4
  %93 = load i32, ptr %15, align 4
  %94 = icmp slt i32 %92, %93
  br i1 %94, label %95, label %102

95:                                               ; preds = %91
  %96 = load i64, ptr %16, align 8
  %97 = load ptr, ptr %18, align 8
  %98 = getelementptr inbounds i64, ptr %97, i32 1
  store ptr %98, ptr %18, align 8
  store i64 %96, ptr %97, align 8
  br label %99

99:                                               ; preds = %95
  %100 = load i32, ptr %24, align 4
  %101 = add nsw i32 %100, 1
  store i32 %101, ptr %24, align 4
  br label %91, !llvm.loop !83

102:                                              ; preds = %91
  br label %103

103:                                              ; preds = %102
  %104 = load i32, ptr %21, align 4
  %105 = add nsw i32 %104, 1
  store i32 %105, ptr %21, align 4
  br label %56, !llvm.loop !84

106:                                              ; preds = %56
  store i32 0, ptr %25, align 4
  br label %107

107:                                              ; preds = %126, %106
  %108 = load i32, ptr %25, align 4
  %109 = load i32, ptr %13, align 4
  %110 = icmp slt i32 %108, %109
  br i1 %110, label %111, label %129

111:                                              ; preds = %107
  store i32 0, ptr %26, align 4
  br label %112

112:                                              ; preds = %122, %111
  %113 = load i32, ptr %26, align 4
  %114 = load ptr, ptr %11, align 8
  %115 = getelementptr inbounds nuw %"class.ncnn::Mat", ptr %114, i32 0, i32 6
  %116 = load i32, ptr %115, align 4
  %117 = icmp slt i32 %113, %116
  br i1 %117, label %118, label %125

118:                                              ; preds = %112
  %119 = load i64, ptr %16, align 8
  %120 = load ptr, ptr %18, align 8
  %121 = getelementptr inbounds i64, ptr %120, i32 1
  store ptr %121, ptr %18, align 8
  store i64 %119, ptr %120, align 8
  br label %122

122:                                              ; preds = %118
  %123 = load i32, ptr %26, align 4
  %124 = add nsw i32 %123, 1
  store i32 %124, ptr %26, align 4
  br label %112, !llvm.loop !85

125:                                              ; preds = %112
  br label %126

126:                                              ; preds = %125
  %127 = load i32, ptr %25, align 4
  %128 = add nsw i32 %127, 1
  store i32 %128, ptr %25, align 4
  br label %107, !llvm.loop !86

129:                                              ; preds = %107
  ret void
}